; Function Attrs: nounwind uwtable
define ptr @tls_get_peer_pkey(ptr noundef readonly captures(none) %0) local_unnamed_addr #0 {
  %2 = getelementptr inbounds nuw i8, ptr %0, i64 2304
  %3 = load ptr, ptr %2, align 8, !tbaa !137
  %4 = getelementptr inbounds nuw i8, ptr %3, i64 696
  %5 = load ptr, ptr %4, align 8, !tbaa !143
  %.not = icmp eq ptr %5, null
  br i1 %.not, label %6, label %11

6:                                                ; preds = %1
  %7 = getelementptr inbounds nuw i8, ptr %3, i64 704
  %8 = load ptr, ptr %7, align 8, !tbaa !144
  %.not7 = icmp eq ptr %8, null
  br i1 %.not7, label %11, label %9

9:                                                ; preds = %6
  %10 = tail call ptr @X509_get0_pubkey(ptr noundef nonnull %8) #11
  br label %11

11:                                               ; preds = %6, %1, %9
  %.0 = phi ptr [ %10, %9 ], [ %5, %1 ], [ null, %6 ]
  ret ptr %.0
}